; Function Attrs: mustprogress uwtable
define void @_ZNK32pxrInternal_v0_24__pxrReserved__13Usd_CrateData18ListAllTimeSamplesEv(ptr dead_on_unwind noalias writable sret(%"class.std::set") align 8 %0, ptr noundef nonnull readonly align 8 captures(none) dereferenceable(32) %1) unnamed_addr #3 align 2 personality ptr @__gxx_personality_v0 {
  %3 = alloca %"class.std::vector.255", align 8
  %4 = getelementptr inbounds nuw i8, ptr %1, i64 24
  %5 = load ptr, ptr %4, align 8
  call void @llvm.lifetime.start.p0(i64 24, ptr nonnull %3)
  call void @_ZNK32pxrInternal_v0_24__pxrReserved__17Usd_CrateDataImpl19_ListAllTimeSamplesEv(ptr dead_on_unwind nonnull writable sret(%"class.std::vector.255") align 8 %3, ptr noundef nonnull align 8 dereferenceable(96) %5), !noalias !37
  %6 = load ptr, ptr %3, align 8, !noalias !37
  %7 = getelementptr inbounds nuw i8, ptr %3, i64 8
  %8 = load ptr, ptr %7, align 8, !noalias !37
  invoke void @_ZNSt3setIdSt4lessIdESaIdEEC2IN9__gnu_cxx17__normal_iteratorIPdSt6vectorIdS2_EEEEET_SB_(ptr noundef nonnull align 8 dereferenceable(48) %0, ptr %6, ptr %8)
          to label %9 unwind label %17

9:                                                ; preds = %2
  %10 = load ptr, ptr %3, align 8, !noalias !37
  %.not.i.i.i.i = icmp eq ptr %10, null
  br i1 %.not.i.i.i.i, label %_ZNK32pxrInternal_v0_24__pxrReserved__17Usd_CrateDataImpl18ListAllTimeSamplesEv.exit, label %11

11:                                               ; preds = %9
  %12 = getelementptr inbounds nuw i8, ptr %3, i64 16
  %13 = load ptr, ptr %12, align 8, !noalias !37
  %14 = ptrtoint ptr %13 to i64
  %15 = ptrtoint ptr %10 to i64
  %16 = sub i64 %14, %15
  call void @_ZdlPvm(ptr noundef nonnull %10, i64 noundef %16) #27
  br label %_ZNK32pxrInternal_v0_24__pxrReserved__17Usd_CrateDataImpl18ListAllTimeSamplesEv.exit

17:                                               ; preds = %2
  %18 = landingpad { ptr, i32 }
          cleanup
  %19 = load ptr, ptr %3, align 8, !noalias !37
  %.not.i.i.i3.i = icmp eq ptr %19, null
  br i1 %.not.i.i.i3.i, label %_ZNSt6vectorIdSaIdEED2Ev.exit4.i, label %20

20:                                               ; preds = %17
  %21 = getelementptr inbounds nuw i8, ptr %3, i64 16
  %22 = load ptr, ptr %21, align 8, !noalias !37
  %23 = ptrtoint ptr %22 to i64
  %24 = ptrtoint ptr %19 to i64
  %25 = sub i64 %23, %24
  call void @_ZdlPvm(ptr noundef nonnull %19, i64 noundef %25) #27
  br label %_ZNSt6vectorIdSaIdEED2Ev.exit4.i

_ZNSt6vectorIdSaIdEED2Ev.exit4.i:                 ; preds = %20, %17
  resume { ptr, i32 } %18

_ZNK32pxrInternal_v0_24__pxrReserved__17Usd_CrateDataImpl18ListAllTimeSamplesEv.exit: ; preds = %9, %11
  call void @llvm.lifetime.end.p0(i64 24, ptr nonnull %3)
  ret void
}